; Function Attrs: mustprogress nofree norecurse nosync nounwind willreturn memory(argmem: readwrite) uwtable
define internal noundef zeroext i1 @"_ZNSt17_Function_handlerIFN5Eigen6MatrixIdLi1ELi3ELi1ELi1ELi3EEEmdEZN3igl12swept_volumeERKNS1_IdLin1ELin1ELi0ELin1ELin1EEERKNS1_IiLin1ELin1ELi0ELin1ELin1EEERKSt8functionIFNS0_9TransformIdLi3ELi2ELi0EEEdEEmmmRS5_RS8_E3$_0E10_M_managerERSt9_Any_dataRKSM_St18_Manager_operation"(ptr noundef nonnull writeonly align 8 captures(none) dereferenceable(16) %0, ptr noundef nonnull align 8 dereferenceable(16) %1, i32 noundef %2) #8 align 2 personality ptr @__gxx_personality_v0 {
  switch i32 %2, label %"_ZNSt14_Function_base13_Base_managerIZN3igl12swept_volumeERKN5Eigen6MatrixIdLin1ELin1ELi0ELin1ELin1EEERKNS3_IiLin1ELin1ELi0ELin1ELin1EEERKSt8functionIFNS2_9TransformIdLi3ELi2ELi0EEEdEEmmmRS4_RS7_E3$_0E10_M_managerERSt9_Any_dataRKSL_St18_Manager_operation.exit" [
    i32 0, label %4
    i32 1, label %5
    i32 2, label %6
  ]

4:                                                ; preds = %3
  store ptr @"_ZTIZN3igl12swept_volumeERKN5Eigen6MatrixIdLin1ELin1ELi0ELin1ELin1EEERKNS1_IiLin1ELin1ELi0ELin1ELin1EEERKSt8functionIFNS0_9TransformIdLi3ELi2ELi0EEEdEEmmmRS2_RS5_E3$_0", ptr %0, align 8, !tbaa !62
  br label %"_ZNSt14_Function_base13_Base_managerIZN3igl12swept_volumeERKN5Eigen6MatrixIdLin1ELin1ELi0ELin1ELin1EEERKNS3_IiLin1ELin1ELi0ELin1ELin1EEERKSt8functionIFNS2_9TransformIdLi3ELi2ELi0EEEdEEmmmRS4_RS7_E3$_0E10_M_managerERSt9_Any_dataRKSL_St18_Manager_operation.exit"

5:                                                ; preds = %3
  store ptr %1, ptr %0, align 8, !tbaa !64
  br label %"_ZNSt14_Function_base13_Base_managerIZN3igl12swept_volumeERKN5Eigen6MatrixIdLin1ELin1ELi0ELin1ELin1EEERKNS3_IiLin1ELin1ELi0ELin1ELin1EEERKSt8functionIFNS2_9TransformIdLi3ELi2ELi0EEEdEEmmmRS4_RS7_E3$_0E10_M_managerERSt9_Any_dataRKSL_St18_Manager_operation.exit"

6:                                                ; preds = %3
  tail call void @llvm.memcpy.p0.p0.i64(ptr noundef nonnull align 8 dereferenceable(16) %0, ptr noundef nonnull readonly align 8 dereferenceable(16) %1, i64 16, i1 false), !tbaa.struct !65
  br label %"_ZNSt14_Function_base13_Base_managerIZN3igl12swept_volumeERKN5Eigen6MatrixIdLin1ELin1ELi0ELin1ELin1EEERKNS3_IiLin1ELin1ELi0ELin1ELin1EEERKSt8functionIFNS2_9TransformIdLi3ELi2ELi0EEEdEEmmmRS4_RS7_E3$_0E10_M_managerERSt9_Any_dataRKSL_St18_Manager_operation.exit"

"_ZNSt14_Function_base13_Base_managerIZN3igl12swept_volumeERKN5Eigen6MatrixIdLin1ELin1ELi0ELin1ELin1EEERKNS3_IiLin1ELin1ELi0ELin1ELin1EEERKSt8functionIFNS2_9TransformIdLi3ELi2ELi0EEEdEEmmmRS4_RS7_E3$_0E10_M_managerERSt9_Any_dataRKSL_St18_Manager_operation.exit": ; preds = %3, %6, %5, %4
  ret i1 false
}